; Function Attrs: mustprogress uwtable
define dso_local void @_ZN4Luau12TypeChecker25visitEPNS_11AstTypePackE(ptr noundef nonnull align 8 dereferenceable(784) %0, ptr noundef %1) local_unnamed_addr #5 align 2 {
  br label %tailrecurse

tailrecurse:                                      ; preds = %._crit_edge, %2
  %.tr23 = phi ptr [ %1, %2 ], [ %14, %._crit_edge ]
  %3 = getelementptr inbounds nuw i8, ptr %.tr23, i64 8
  %4 = load i32, ptr %3, align 8, !tbaa !244
  %5 = load i32, ptr @_ZN4Luau7AstRttiINS_19AstTypePackExplicitEE5valueE, align 4, !tbaa !4
  %6 = icmp ne i32 %4, %5
  %.not20 = icmp eq ptr %.tr23, null
  %.not = or i1 %.not20, %6
  br i1 %.not, label %17, label %7

7:                                                ; preds = %tailrecurse
  %8 = getelementptr inbounds nuw i8, ptr %.tr23, i64 32
  %9 = load ptr, ptr %8, align 8, !tbaa !603
  %10 = getelementptr inbounds nuw i8, ptr %.tr23, i64 40
  %11 = load i64, ptr %10, align 8, !tbaa !605
  %12 = getelementptr inbounds nuw ptr, ptr %9, i64 %11
  %.not.i26 = icmp eq i64 %11, 0
  br i1 %.not.i26, label %._crit_edge, label %.lr.ph

._crit_edge:                                      ; preds = %.lr.ph, %7
  %13 = getelementptr inbounds nuw i8, ptr %.tr23, i64 48
  %14 = load ptr, ptr %13, align 8, !tbaa !606
  %.not12.i = icmp eq ptr %14, null
  br i1 %.not12.i, label %_ZN4Luau12TypeChecker25visitEPNS_19AstTypePackExplicitE.exit, label %tailrecurse

.lr.ph:                                           ; preds = %7, %.lr.ph
  %.0.i27 = phi ptr [ %16, %.lr.ph ], [ %9, %7 ]
  %15 = load ptr, ptr %.0.i27, align 8, !tbaa !422
  tail call void @_ZN4Luau12TypeChecker25visitEPNS_7AstTypeE(ptr noundef nonnull align 8 dereferenceable(784) %0, ptr noundef %15)
  %16 = getelementptr inbounds nuw i8, ptr %.0.i27, i64 8
  %.not.i = icmp eq ptr %16, %12
  br i1 %.not.i, label %._crit_edge, label %.lr.ph

17:                                               ; preds = %tailrecurse
  %18 = load i32, ptr @_ZN4Luau7AstRttiINS_19AstTypePackVariadicEE5valueE, align 4, !tbaa !4
  %19 = icmp ne i32 %4, %18
  %.not16 = or i1 %.not20, %19
  br i1 %.not16, label %23, label %20

20:                                               ; preds = %17
  %21 = getelementptr inbounds nuw i8, ptr %.tr23, i64 32
  %22 = load ptr, ptr %21, align 8, !tbaa !610
  tail call void @_ZN4Luau12TypeChecker25visitEPNS_7AstTypeE(ptr noundef nonnull align 8 dereferenceable(784) %0, ptr noundef %22)
  br label %_ZN4Luau12TypeChecker25visitEPNS_19AstTypePackExplicitE.exit

23:                                               ; preds = %17
  %24 = load i32, ptr @_ZN4Luau7AstRttiINS_18AstTypePackGenericEE5valueE, align 4, !tbaa !4
  %25 = icmp ne i32 %4, %24
  %.not17 = or i1 %.not20, %25
  br i1 %.not17, label %_ZN4Luau12TypeChecker25visitEPNS_19AstTypePackExplicitE.exit, label %26

26:                                               ; preds = %23
  tail call void @_ZN4Luau12TypeChecker25visitEPNS_18AstTypePackGenericE(ptr noundef nonnull align 8 dereferenceable(784) %0, ptr noundef nonnull %.tr23)
  br label %_ZN4Luau12TypeChecker25visitEPNS_19AstTypePackExplicitE.exit

_ZN4Luau12TypeChecker25visitEPNS_19AstTypePackExplicitE.exit: ; preds = %._crit_edge, %20, %23, %26
  ret void
}